target datalayout = "e-m:e-p270:32:32-p271:32:32-p272:64:64-i64:64-i128:128-f80:128-n8:16:32:64-S128"
target triple = "x86_64-pc-linux-gnu"

%struct._object = type { i64, ptr }
%"struct.nanobind::detail::nb_inst" = type { %struct._object, i32, i32 }

; Function Attrs: mustprogress uwtable
define noundef ptr @_ZN8nanobind6detail22nb_inst_take_ownershipEP11_typeobjectPv(ptr noundef %0, ptr noundef %1) #0 {
  %3 = alloca ptr, align 8
  %4 = alloca ptr, align 8
  %5 = alloca ptr, align 8
  %6 = alloca ptr, align 8
  store ptr %0, ptr %3, align 8
  store ptr %1, ptr %4, align 8
  call void @llvm.lifetime.start.p0(i64 8, ptr %5) #20
  %7 = load ptr, ptr %3, align 8
  %8 = load ptr, ptr %4, align 8
  %9 = call noundef ptr @_ZN8nanobind6detail12inst_new_extEP11_typeobjectPv(ptr noundef %7, ptr noundef %8)
  store ptr %9, ptr %5, align 8
  %10 = load ptr, ptr %5, align 8
  %11 = icmp ne ptr %10, null
  br i1 %11, label %13, label %12

12:                                               ; preds = %2
  call void @_ZN8nanobind6detail18raise_python_errorEv() #24
  unreachable

13:                                               ; preds = %2
  call void @llvm.lifetime.start.p0(i64 8, ptr %6) #20
  %14 = load ptr, ptr %5, align 8
  store ptr %14, ptr %6, align 8
  %15 = load ptr, ptr %6, align 8
  %16 = getelementptr inbounds nuw %"struct.nanobind::detail::nb_inst", ptr %15, i32 0, i32 2
  %17 = load i32, ptr %16, align 4
  %18 = and i32 %17, -33
  %19 = or i32 %18, 32
  store i32 %19, ptr %16, align 4
  %20 = load ptr, ptr %6, align 8
  %21 = getelementptr inbounds nuw %"struct.nanobind::detail::nb_inst", ptr %20, i32 0, i32 2
  %22 = load i32, ptr %21, align 4
  %23 = and i32 %22, -17
  %24 = or i32 %23, 16
  store i32 %24, ptr %21, align 4
  %25 = load ptr, ptr %6, align 8
  %26 = getelementptr inbounds nuw %"struct.nanobind::detail::nb_inst", ptr %25, i32 0, i32 2
  %27 = load i32, ptr %26, align 4
  %28 = and i32 %27, -4
  %29 = or i32 %28, 2
  store i32 %29, ptr %26, align 4
  %30 = load ptr, ptr %5, align 8
  %31 = load ptr, ptr %4, align 8
  call void @_ZN8nanobind6detailL13inst_registerEP7_objectPv(ptr noundef %30, ptr noundef %31) #20
  %32 = load ptr, ptr %5, align 8
  call void @llvm.lifetime.end.p0(i64 8, ptr %6) #20
  call void @llvm.lifetime.end.p0(i64 8, ptr %5) #20
  ret ptr %32
}