; Function Attrs: mustprogress uwtable
define noundef nonnull ptr @_ZN8nanobind6detail22nb_inst_take_ownershipEP11_typeobjectPv(ptr noundef %0, ptr noundef %1) local_unnamed_addr #0 {
  %3 = tail call noundef ptr @_ZN8nanobind6detail12inst_new_extEP11_typeobjectPv(ptr noundef %0, ptr noundef %1)
  %.not = icmp eq ptr %3, null
  br i1 %.not, label %4, label %5

4:                                                ; preds = %2
  tail call void @_ZN8nanobind6detail18raise_python_errorEv() #33
  unreachable

5:                                                ; preds = %2
  %6 = getelementptr inbounds nuw i8, ptr %3, i64 20
  %7 = load i32, ptr %6, align 4
  %8 = and i32 %7, -52
  %9 = or disjoint i32 %8, 50
  store i32 %9, ptr %6, align 4
  tail call fastcc void @_ZN8nanobind6detailL13inst_registerEP7_objectPv(ptr noundef %3, ptr noundef %1) #29
  ret ptr %3
}